target datalayout = "e-m:e-p270:32:32-p271:32:32-p272:64:64-i64:64-i128:128-f80:128-n8:16:32:64-S128"
target triple = "x86_64-unknown-linux-gnu"

%"struct.node::AssertionInfo" = type { ptr, ptr, ptr }
%"struct.node::crypto::PBKDF2Config" = type { %"class.node::MemoryRetainer", i32, %"class.node::crypto::ByteSource", %"class.node::crypto::ByteSource", i32, i32, ptr }
%"class.node::MemoryRetainer" = type { ptr }
%"class.node::crypto::ByteSource" = type { ptr, ptr, i64 }
%"class.node::crypto::ByteSource::Builder" = type { ptr, i64 }
%"class.std::optional" = type { %"struct.std::_Optional_base" }
%"struct.std::_Optional_base" = type { %"struct.std::_Optional_payload" }
%"struct.std::_Optional_payload" = type { %"struct.std::_Optional_payload_base.base", [7 x i8] }
%"struct.std::_Optional_payload_base.base" = type <{ %"union.std::_Optional_payload_base<unsigned long>::_Storage", i8 }>
%"union.std::_Optional_payload_base<unsigned long>::_Storage" = type { i64 }
%"struct.std::_Optional_payload_base" = type <{ %"union.std::_Optional_payload_base<unsigned long>::_Storage", i8, [7 x i8] }>

@.str.16 = private unnamed_addr constant [31 x i8] c"../../src/crypto/crypto_util.h\00", align 1
@_ZZN4node6crypto13MallocOpenSSLIcEEPT_mE4args = linkonce_odr dso_local constant %"struct.node::AssertionInfo" { ptr @.str.17, ptr @.str.18, ptr @.str.19 }, comdat, align 8
@_ZZN4node25MultiplyWithOverflowCheckImEET_S1_S1_E4args = linkonce_odr dso_local constant %"struct.node::AssertionInfo" { ptr @.str.20, ptr @.str.21, ptr @.str.22 }, comdat, align 8
@_ZZNO4node6crypto10ByteSource7Builder7releaseESt8optionalImEE4args = linkonce_odr dso_local constant %"struct.node::AssertionInfo" { ptr @.str.23, ptr @.str.24, ptr @.str.25 }, comdat, align 8

; Function Attrs: mustprogress nounwind uwtable
define linkonce_odr dso_local void @_ZNSt22_Optional_payload_baseImE8_StorageImLb1EEC2Ev(ptr noundef nonnull align 8 dereferenceable(8) %this) unnamed_addr #4 comdat align 2 {
entry:
  %this.addr = alloca ptr, align 8
  store ptr %this, ptr %this.addr, align 8
  ret void
}

; Function Attrs: mustprogress nounwind uwtable
define linkonce_odr dso_local noundef nonnull align 8 dereferenceable(8) ptr @_ZNSt22_Optional_payload_baseImE6_M_getEv(ptr noundef nonnull align 8 dereferenceable(9) %this) #4 comdat align 2 {
entry:
  %this.addr = alloca ptr, align 8
  store ptr %this, ptr %this.addr, align 8
  %this1 = load ptr, ptr %this.addr, align 8
  %_M_payload = getelementptr inbounds %"struct.std::_Optional_payload_base", ptr %this1, i32 0, i32 0
  ret ptr %_M_payload
}

; Function Attrs: mustprogress nounwind uwtable
define linkonce_odr dso_local void @_ZNSt22_Optional_payload_baseImEC2Ev(ptr noundef nonnull align 8 dereferenceable(9) %this) unnamed_addr #4 comdat align 2 {
entry:
  %this.addr = alloca ptr, align 8
  store ptr %this, ptr %this.addr, align 8
  %this1 = load ptr, ptr %this.addr, align 8
  %_M_payload = getelementptr inbounds %"struct.std::_Optional_payload_base", ptr %this1, i32 0, i32 0
  call void @_ZNSt22_Optional_payload_baseImE8_StorageImLb1EEC2Ev(ptr noundef nonnull align 8 dereferenceable(8) %_M_payload) #3
  %_M_engaged = getelementptr inbounds %"struct.std::_Optional_payload_base", ptr %this1, i32 0, i32 1
  store i8 0, ptr %_M_engaged, align 8
  ret void
}

; Function Attrs: mustprogress nounwind uwtable
define linkonce_odr dso_local noundef nonnull align 8 dereferenceable(8) ptr @_ZNSt19_Optional_base_implImSt14_Optional_baseImLb1ELb1EEE6_M_getEv(ptr noundef nonnull align 1 dereferenceable(1) %this) #4 comdat align 2 {
entry:
  %this.addr = alloca ptr, align 8
  store ptr %this, ptr %this.addr, align 8
  %this1 = load ptr, ptr %this.addr, align 8
  br label %do.body

do.body:                                          ; preds = %entry
  br label %do.end

do.end:                                           ; preds = %do.body
  %_M_payload = getelementptr inbounds %"struct.std::_Optional_base", ptr %this1, i32 0, i32 0
  %call = call noundef nonnull align 8 dereferenceable(8) ptr @_ZNSt22_Optional_payload_baseImE6_M_getEv(ptr noundef nonnull align 8 dereferenceable(9) %_M_payload) #3
  ret ptr %call
}

; Function Attrs: mustprogress nounwind uwtable
define linkonce_odr dso_local noundef zeroext i1 @_ZNKSt19_Optional_base_implImSt14_Optional_baseImLb1ELb1EEE13_M_is_engagedEv(ptr noundef nonnull align 1 dereferenceable(1) %this) #4 comdat align 2 {
entry:
  %this.addr = alloca ptr, align 8
  store ptr %this, ptr %this.addr, align 8
  %this1 = load ptr, ptr %this.addr, align 8
  %_M_payload = getelementptr inbounds %"struct.std::_Optional_base", ptr %this1, i32 0, i32 0
  %_M_engaged = getelementptr inbounds %"struct.std::_Optional_payload_base", ptr %_M_payload, i32 0, i32 1
  %0 = load i8, ptr %_M_engaged, align 8
  %tobool = trunc i8 %0 to i1
  ret i1 %tobool
}

; Function Attrs: mustprogress nounwind uwtable
define linkonce_odr dso_local void @_ZNSt17_Optional_payloadImLb1ELb1ELb1EEC2Ev(ptr noundef nonnull align 8 dereferenceable(9) %this) unnamed_addr #4 comdat align 2 {
entry:
  %this.addr = alloca ptr, align 8
  store ptr %this, ptr %this.addr, align 8
  %this1 = load ptr, ptr %this.addr, align 8
  call void @_ZNSt22_Optional_payload_baseImEC2Ev(ptr noundef nonnull align 8 dereferenceable(9) %this1) #3
  ret void
}

; Function Attrs: mustprogress nounwind uwtable
define linkonce_odr dso_local noundef i64 @_ZN4node25MultiplyWithOverflowCheckImEET_S1_S1_(i64 noundef %a, i64 noundef %b) #4 comdat {
entry:
  %a.addr = alloca i64, align 8
  %b.addr = alloca i64, align 8
  %ret = alloca i64, align 8
  store i64 %a, ptr %a.addr, align 8
  store i64 %b, ptr %b.addr, align 8
  %0 = load i64, ptr %a.addr, align 8
  %1 = load i64, ptr %b.addr, align 8
  %mul = mul i64 %0, %1
  store i64 %mul, ptr %ret, align 8
  %2 = load i64, ptr %a.addr, align 8
  %cmp = icmp ne i64 %2, 0
  br i1 %cmp, label %if.then, label %if.end7

if.then:                                          ; preds = %entry
  br label %do.body

do.body:                                          ; preds = %if.then
  %3 = load i64, ptr %b.addr, align 8
  %4 = load i64, ptr %ret, align 8
  %5 = load i64, ptr %a.addr, align 8
  %div = udiv i64 %4, %5
  %cmp1 = icmp eq i64 %3, %div
  %lnot = xor i1 %cmp1, true
  %lnot2 = xor i1 %lnot, true
  %lnot3 = xor i1 %lnot2, true
  br i1 %lnot3, label %if.then4, label %if.end

if.then4:                                         ; preds = %do.body
  br label %do.body5

do.body5:                                         ; preds = %if.then4
  call void @_ZN4node6AssertERKNS_13AssertionInfoE(ptr noundef nonnull align 8 dereferenceable(24) @_ZZN4node25MultiplyWithOverflowCheckImEET_S1_S1_E4args)
  call void @abort() #14
  unreachable

do.end:                                           ; No predecessors!
  br label %if.end

if.end:                                           ; preds = %do.end, %do.body
  br label %do.end6

do.end6:                                          ; preds = %if.end
  br label %if.end7

if.end7:                                          ; preds = %do.end6, %entry
  %6 = load i64, ptr %ret, align 8
  ret i64 %6
}

; Function Attrs: mustprogress nounwind uwtable
define linkonce_odr dso_local noundef nonnull align 8 dereferenceable(8) ptr @_ZNRSt8optionalImEdeEv(ptr noundef nonnull align 8 dereferenceable(16) %this) #4 comdat align 2 {
entry:
  %this.addr = alloca ptr, align 8
  store ptr %this, ptr %this.addr, align 8
  %this1 = load ptr, ptr %this.addr, align 8
  %call = call noundef nonnull align 8 dereferenceable(8) ptr @_ZNSt19_Optional_base_implImSt14_Optional_baseImLb1ELb1EEE6_M_getEv(ptr noundef nonnull align 1 dereferenceable(1) %this1) #3
  ret ptr %call
}

; Function Attrs: mustprogress nounwind uwtable
define linkonce_odr dso_local noundef zeroext i1 @_ZNKSt8optionalImEcvbEv(ptr noundef nonnull align 8 dereferenceable(16) %this) #4 comdat align 2 {
entry:
  %this.addr = alloca ptr, align 8
  store ptr %this, ptr %this.addr, align 8
  %this1 = load ptr, ptr %this.addr, align 8
  %call = call noundef zeroext i1 @_ZNKSt19_Optional_base_implImSt14_Optional_baseImLb1ELb1EEE13_M_is_engagedEv(ptr noundef nonnull align 1 dereferenceable(1) %this1) #3
  ret i1 %call
}

; Function Attrs: mustprogress nounwind uwtable
define linkonce_odr dso_local void @_ZNSt14_Optional_baseImLb1ELb1EEC2Ev(ptr noundef nonnull align 8 dereferenceable(16) %this) unnamed_addr #4 comdat align 2 {
entry:
  %this.addr = alloca ptr, align 8
  store ptr %this, ptr %this.addr, align 8
  %this1 = load ptr, ptr %this.addr, align 8
  %_M_payload = getelementptr inbounds %"struct.std::_Optional_base", ptr %this1, i32 0, i32 0
  call void @_ZNSt17_Optional_payloadImLb1ELb1ELb1EEC2Ev(ptr noundef nonnull align 8 dereferenceable(9) %_M_payload) #3
  ret void
}

; Function Attrs: mustprogress nounwind uwtable
define linkonce_odr dso_local noundef ptr @_ZN4node6crypto13MallocOpenSSLIcEEPT_m(i64 noundef %count) #4 comdat {
entry:
  %count.addr = alloca i64, align 8
  %mem = alloca ptr, align 8
  store i64 %count, ptr %count.addr, align 8
  %0 = load i64, ptr %count.addr, align 8
  %call = call noundef i64 @_ZN4node25MultiplyWithOverflowCheckImEET_S1_S1_(i64 noundef %0, i64 noundef 1)
  %call1 = call ptr @CRYPTO_malloc(i64 noundef %call, ptr noundef @.str.16, i32 noundef 205)
  store ptr %call1, ptr %mem, align 8
  br label %do.body

do.body:                                          ; preds = %entry
  %1 = load ptr, ptr %mem, align 8
  %cmp = icmp eq ptr %1, null
  br i1 %cmp, label %lor.rhs, label %lor.end

lor.rhs:                                          ; preds = %do.body
  %2 = load i64, ptr %count.addr, align 8
  %cmp2 = icmp eq i64 %2, 0
  br label %lor.end

lor.end:                                          ; preds = %lor.rhs, %do.body
  %3 = phi i1 [ true, %do.body ], [ %cmp2, %lor.rhs ]
  %lnot = xor i1 %3, true
  %lnot3 = xor i1 %lnot, true
  %lnot4 = xor i1 %lnot3, true
  br i1 %lnot4, label %if.then, label %if.end

if.then:                                          ; preds = %lor.end
  br label %do.body5

do.body5:                                         ; preds = %if.then
  call void @_ZN4node6AssertERKNS_13AssertionInfoE(ptr noundef nonnull align 8 dereferenceable(24) @_ZZN4node6crypto13MallocOpenSSLIcEEPT_mE4args)
  call void @abort() #14
  unreachable

do.end:                                           ; No predecessors!
  br label %if.end

if.end:                                           ; preds = %do.end, %lor.end
  br label %do.end6

do.end6:                                          ; preds = %if.end
  %4 = load ptr, ptr %mem, align 8
  ret ptr %4
}

; Function Attrs: mustprogress nounwind uwtable
define linkonce_odr dso_local void @_ZN4node6crypto10ByteSource7BuilderD2Ev(ptr noundef nonnull align 8 dereferenceable(16) %this) unnamed_addr #4 comdat align 2 {
entry:
  %this.addr = alloca ptr, align 8
  store ptr %this, ptr %this.addr, align 8
  %this1 = load ptr, ptr %this.addr, align 8
  %data_ = getelementptr inbounds %"class.node::crypto::ByteSource::Builder", ptr %this1, i32 0, i32 0
  %0 = load ptr, ptr %data_, align 8
  %size_ = getelementptr inbounds %"class.node::crypto::ByteSource::Builder", ptr %this1, i32 0, i32 1
  %1 = load i64, ptr %size_, align 8
  call void @CRYPTO_clear_free(ptr noundef %0, i64 noundef %1, ptr noundef @.str.16, i32 noundef 225)
  ret void
}

; Function Attrs: mustprogress nounwind uwtable
define linkonce_odr dso_local void @_ZNO4node6crypto10ByteSource7Builder7releaseESt8optionalImE(ptr noalias sret(%"class.node::crypto::ByteSource") align 8 %agg.result, ptr noundef nonnull align 8 dereferenceable(16) %this, i64 %resize.coerce0, i8 %resize.coerce1) #4 comdat align 2 {
entry:
  %result.ptr = alloca ptr, align 8
  %resize = alloca %"class.std::optional", align 8
  %this.addr = alloca ptr, align 8
  %nrvo = alloca i1, align 1
  store ptr %agg.result, ptr %result.ptr, align 8
  %0 = getelementptr inbounds { i64, i8 }, ptr %resize, i32 0, i32 0
  store i64 %resize.coerce0, ptr %0, align 8
  %1 = getelementptr inbounds { i64, i8 }, ptr %resize, i32 0, i32 1
  store i8 %resize.coerce1, ptr %1, align 8
  store ptr %this, ptr %this.addr, align 8
  %this1 = load ptr, ptr %this.addr, align 8
  %call = call noundef zeroext i1 @_ZNKSt8optionalImEcvbEv(ptr noundef nonnull align 8 dereferenceable(16) %resize) #3
  br i1 %call, label %if.then, label %if.end16

if.then:                                          ; preds = %entry
  br label %do.body

do.body:                                          ; preds = %if.then
  %call2 = call noundef nonnull align 8 dereferenceable(8) ptr @_ZNRSt8optionalImEdeEv(ptr noundef nonnull align 8 dereferenceable(16) %resize) #3
  %2 = load i64, ptr %call2, align 8
  %size_ = getelementptr inbounds %"class.node::crypto::ByteSource::Builder", ptr %this1, i32 0, i32 1
  %3 = load i64, ptr %size_, align 8
  %cmp = icmp ule i64 %2, %3
  %lnot = xor i1 %cmp, true
  %lnot3 = xor i1 %lnot, true
  %lnot4 = xor i1 %lnot3, true
  br i1 %lnot4, label %if.then5, label %if.end

if.then5:                                         ; preds = %do.body
  br label %do.body6

do.body6:                                         ; preds = %if.then5
  call void @_ZN4node6AssertERKNS_13AssertionInfoE(ptr noundef nonnull align 8 dereferenceable(24) @_ZZNO4node6crypto10ByteSource7Builder7releaseESt8optionalImEE4args)
  call void @abort() #14
  unreachable

do.end:                                           ; No predecessors!
  br label %if.end

if.end:                                           ; preds = %do.end, %do.body
  br label %do.end7

do.end7:                                          ; preds = %if.end
  %call8 = call noundef nonnull align 8 dereferenceable(8) ptr @_ZNRSt8optionalImEdeEv(ptr noundef nonnull align 8 dereferenceable(16) %resize) #3
  %4 = load i64, ptr %call8, align 8
  %cmp9 = icmp eq i64 %4, 0
  br i1 %cmp9, label %if.then10, label %if.end13

if.then10:                                        ; preds = %do.end7
  %data_ = getelementptr inbounds %"class.node::crypto::ByteSource::Builder", ptr %this1, i32 0, i32 0
  %5 = load ptr, ptr %data_, align 8
  %size_11 = getelementptr inbounds %"class.node::crypto::ByteSource::Builder", ptr %this1, i32 0, i32 1
  %6 = load i64, ptr %size_11, align 8
  call void @CRYPTO_clear_free(ptr noundef %5, i64 noundef %6, ptr noundef @.str.16, i32 noundef 242)
  %data_12 = getelementptr inbounds %"class.node::crypto::ByteSource::Builder", ptr %this1, i32 0, i32 0
  store ptr null, ptr %data_12, align 8
  br label %if.end13

if.end13:                                         ; preds = %if.then10, %do.end7
  %call14 = call noundef nonnull align 8 dereferenceable(8) ptr @_ZNRSt8optionalImEdeEv(ptr noundef nonnull align 8 dereferenceable(16) %resize) #3
  %7 = load i64, ptr %call14, align 8
  %size_15 = getelementptr inbounds %"class.node::crypto::ByteSource::Builder", ptr %this1, i32 0, i32 1
  store i64 %7, ptr %size_15, align 8
  br label %if.end16

if.end16:                                         ; preds = %if.end13, %entry
  store i1 false, ptr %nrvo, align 1
  %data_17 = getelementptr inbounds %"class.node::crypto::ByteSource::Builder", ptr %this1, i32 0, i32 0
  %8 = load ptr, ptr %data_17, align 8
  %size_18 = getelementptr inbounds %"class.node::crypto::ByteSource::Builder", ptr %this1, i32 0, i32 1
  %9 = load i64, ptr %size_18, align 8
  call void @_ZN4node6crypto10ByteSource9AllocatedEPvm(ptr sret(%"class.node::crypto::ByteSource") align 8 %agg.result, ptr noundef %8, i64 noundef %9)
  %data_19 = getelementptr inbounds %"class.node::crypto::ByteSource::Builder", ptr %this1, i32 0, i32 0
  store ptr null, ptr %data_19, align 8
  %size_20 = getelementptr inbounds %"class.node::crypto::ByteSource::Builder", ptr %this1, i32 0, i32 1
  store i64 0, ptr %size_20, align 8
  store i1 true, ptr %nrvo, align 1
  %nrvo.val = load i1, ptr %nrvo, align 1
  br i1 %nrvo.val, label %nrvo.skipdtor, label %nrvo.unused

nrvo.unused:                                      ; preds = %if.end16
  call void @_ZN4node6crypto10ByteSourceD1Ev(ptr noundef nonnull align 8 dereferenceable(24) %agg.result) #3
  br label %nrvo.skipdtor

nrvo.skipdtor:                                    ; preds = %nrvo.unused, %if.end16
  ret void
}

; Function Attrs: mustprogress nounwind uwtable
define linkonce_odr dso_local void @_ZNSt8optionalImEC2ESt9nullopt_t(ptr noundef nonnull align 8 dereferenceable(16) %this) unnamed_addr #4 comdat align 2 {
entry:
  %this.addr = alloca ptr, align 8
  store ptr %this, ptr %this.addr, align 8
  %this1 = load ptr, ptr %this.addr, align 8
  call void @_ZNSt14_Optional_baseImLb1ELb1EEC2Ev(ptr noundef nonnull align 8 dereferenceable(16) %this1) #3
  ret void
}

; Function Attrs: mustprogress nounwind uwtable
define linkonce_odr dso_local noundef ptr @_ZN4node6crypto10ByteSource7Builder4dataIhEEPT_v(ptr noundef nonnull align 8 dereferenceable(16) %this) #4 comdat align 2 {
entry:
  %this.addr = alloca ptr, align 8
  store ptr %this, ptr %this.addr, align 8
  %this1 = load ptr, ptr %this.addr, align 8
  %data_ = getelementptr inbounds %"class.node::crypto::ByteSource::Builder", ptr %this1, i32 0, i32 0
  %0 = load ptr, ptr %data_, align 8
  ret ptr %0
}

; Function Attrs: mustprogress nounwind uwtable
define linkonce_odr dso_local noundef ptr @_ZNK4node6crypto10ByteSource4dataIhEEPKT_v(ptr noundef nonnull align 8 dereferenceable(24) %this) #4 comdat align 2 {
entry:
  %this.addr = alloca ptr, align 8
  store ptr %this, ptr %this.addr, align 8
  %this1 = load ptr, ptr %this.addr, align 8
  %data_ = getelementptr inbounds %"class.node::crypto::ByteSource", ptr %this1, i32 0, i32 0
  %0 = load ptr, ptr %data_, align 8
  ret ptr %0
}

; Function Attrs: mustprogress nounwind uwtable
define linkonce_odr dso_local noundef i64 @_ZNK4node6crypto10ByteSource4sizeEv(ptr noundef nonnull align 8 dereferenceable(24) %this) #4 comdat align 2 {
entry:
  %this.addr = alloca ptr, align 8
  store ptr %this, ptr %this.addr, align 8
  %this1 = load ptr, ptr %this.addr, align 8
  %size_ = getelementptr inbounds %"class.node::crypto::ByteSource", ptr %this1, i32 0, i32 2
  %0 = load i64, ptr %size_, align 8
  ret i64 %0
}

; Function Attrs: mustprogress nounwind uwtable
define linkonce_odr dso_local noundef ptr @_ZNK4node6crypto10ByteSource4dataIcEEPKT_v(ptr noundef nonnull align 8 dereferenceable(24) %this) #4 comdat align 2 {
entry:
  %this.addr = alloca ptr, align 8
  store ptr %this, ptr %this.addr, align 8
  %this1 = load ptr, ptr %this.addr, align 8
  %data_ = getelementptr inbounds %"class.node::crypto::ByteSource", ptr %this1, i32 0, i32 0
  %0 = load ptr, ptr %data_, align 8
  ret ptr %0
}

; Function Attrs: mustprogress nounwind uwtable
define linkonce_odr dso_local void @_ZN4node6crypto10ByteSource7BuilderC2Em(ptr noundef nonnull align 8 dereferenceable(16) %this, i64 noundef %size) unnamed_addr #4 comdat align 2 {
entry:
  %this.addr = alloca ptr, align 8
  %size.addr = alloca i64, align 8
  store ptr %this, ptr %this.addr, align 8
  store i64 %size, ptr %size.addr, align 8
  %this1 = load ptr, ptr %this.addr, align 8
  %data_ = getelementptr inbounds %"class.node::crypto::ByteSource::Builder", ptr %this1, i32 0, i32 0
  %0 = load i64, ptr %size.addr, align 8
  %call = call noundef ptr @_ZN4node6crypto13MallocOpenSSLIcEEPT_m(i64 noundef %0)
  store ptr %call, ptr %data_, align 8
  %size_ = getelementptr inbounds %"class.node::crypto::ByteSource::Builder", ptr %this1, i32 0, i32 1
  %1 = load i64, ptr %size.addr, align 8
  store i64 %1, ptr %size_, align 8
  ret void
}

; Function Attrs: mustprogress nounwind uwtable
define dso_local noundef zeroext i1 @_ZN4node6crypto12PBKDF2Traits10DeriveBitsEPNS_11EnvironmentERKNS0_12PBKDF2ConfigEPNS0_10ByteSourceE(ptr noundef %env, ptr noundef nonnull align 8 dereferenceable(80) %params, ptr noundef %out) #4 align 2 {
entry:
  %retval = alloca i1, align 1
  %env.addr = alloca ptr, align 8
  %params.addr = alloca ptr, align 8
  %out.addr = alloca ptr, align 8
  %buf = alloca %"class.node::crypto::ByteSource::Builder", align 8
  %cleanup.dest.slot = alloca i32, align 4
  %ref.tmp = alloca %"class.node::crypto::ByteSource", align 8
  %agg.tmp = alloca %"class.std::optional", align 8
  store ptr %env, ptr %env.addr, align 8
  store ptr %params, ptr %params.addr, align 8
  store ptr %out, ptr %out.addr, align 8
  %0 = load ptr, ptr %params.addr, align 8
  %length = getelementptr inbounds %"struct.node::crypto::PBKDF2Config", ptr %0, i32 0, i32 5
  %1 = load i32, ptr %length, align 4
  %conv = sext i32 %1 to i64
  call void @_ZN4node6crypto10ByteSource7BuilderC2Em(ptr noundef nonnull align 8 dereferenceable(16) %buf, i64 noundef %conv)
  %2 = load ptr, ptr %params.addr, align 8
  %pass = getelementptr inbounds %"struct.node::crypto::PBKDF2Config", ptr %2, i32 0, i32 2
  %call = call noundef ptr @_ZNK4node6crypto10ByteSource4dataIcEEPKT_v(ptr noundef nonnull align 8 dereferenceable(24) %pass)
  %3 = load ptr, ptr %params.addr, align 8
  %pass1 = getelementptr inbounds %"struct.node::crypto::PBKDF2Config", ptr %3, i32 0, i32 2
  %call2 = call noundef i64 @_ZNK4node6crypto10ByteSource4sizeEv(ptr noundef nonnull align 8 dereferenceable(24) %pass1)
  %conv3 = trunc i64 %call2 to i32
  %4 = load ptr, ptr %params.addr, align 8
  %salt = getelementptr inbounds %"struct.node::crypto::PBKDF2Config", ptr %4, i32 0, i32 3
  %call4 = call noundef ptr @_ZNK4node6crypto10ByteSource4dataIhEEPKT_v(ptr noundef nonnull align 8 dereferenceable(24) %salt)
  %5 = load ptr, ptr %params.addr, align 8
  %salt5 = getelementptr inbounds %"struct.node::crypto::PBKDF2Config", ptr %5, i32 0, i32 3
  %call6 = call noundef i64 @_ZNK4node6crypto10ByteSource4sizeEv(ptr noundef nonnull align 8 dereferenceable(24) %salt5)
  %conv7 = trunc i64 %call6 to i32
  %6 = load ptr, ptr %params.addr, align 8
  %iterations = getelementptr inbounds %"struct.node::crypto::PBKDF2Config", ptr %6, i32 0, i32 4
  %7 = load i32, ptr %iterations, align 8
  %8 = load ptr, ptr %params.addr, align 8
  %digest = getelementptr inbounds %"struct.node::crypto::PBKDF2Config", ptr %8, i32 0, i32 6
  %9 = load ptr, ptr %digest, align 8
  %10 = load ptr, ptr %params.addr, align 8
  %length8 = getelementptr inbounds %"struct.node::crypto::PBKDF2Config", ptr %10, i32 0, i32 5
  %11 = load i32, ptr %length8, align 4
  %call9 = call noundef ptr @_ZN4node6crypto10ByteSource7Builder4dataIhEEPT_v(ptr noundef nonnull align 8 dereferenceable(16) %buf)
  %call10 = call i32 @PKCS5_PBKDF2_HMAC(ptr noundef %call, i32 noundef %conv3, ptr noundef %call4, i32 noundef %conv7, i32 noundef %7, ptr noundef %9, i32 noundef %11, ptr noundef %call9)
  %cmp = icmp sle i32 %call10, 0
  br i1 %cmp, label %if.then, label %if.end

if.then:                                          ; preds = %entry
  store i1 false, ptr %retval, align 1
  store i32 1, ptr %cleanup.dest.slot, align 4
  br label %cleanup

if.end:                                           ; preds = %entry
  call void @_ZNSt8optionalImEC2ESt9nullopt_t(ptr noundef nonnull align 8 dereferenceable(16) %agg.tmp) #3
  %12 = getelementptr inbounds { i64, i8 }, ptr %agg.tmp, i32 0, i32 0
  %13 = load i64, ptr %12, align 8
  %14 = getelementptr inbounds { i64, i8 }, ptr %agg.tmp, i32 0, i32 1
  %15 = load i8, ptr %14, align 8
  call void @_ZNO4node6crypto10ByteSource7Builder7releaseESt8optionalImE(ptr sret(%"class.node::crypto::ByteSource") align 8 %ref.tmp, ptr noundef nonnull align 8 dereferenceable(16) %buf, i64 %13, i8 %15)
  %16 = load ptr, ptr %out.addr, align 8
  %call12 = call noundef nonnull align 8 dereferenceable(24) ptr @_ZN4node6crypto10ByteSourceaSEOS1_(ptr noundef nonnull align 8 dereferenceable(24) %16, ptr noundef nonnull align 8 dereferenceable(24) %ref.tmp) #3
  call void @_ZN4node6crypto10ByteSourceD1Ev(ptr noundef nonnull align 8 dereferenceable(24) %ref.tmp) #3
  store i1 true, ptr %retval, align 1
  store i32 1, ptr %cleanup.dest.slot, align 4
  br label %cleanup

cleanup:                                          ; preds = %if.end, %if.then
  call void @_ZN4node6crypto10ByteSource7BuilderD2Ev(ptr noundef nonnull align 8 dereferenceable(16) %buf) #3
  %17 = load i1, ptr %retval, align 1
  ret i1 %17
}