; Function Attrs: mustprogress nounwind uwtable
define dso_local noundef zeroext i1 @_ZN4node6crypto12PBKDF2Traits10DeriveBitsEPNS_11EnvironmentERKNS0_12PBKDF2ConfigEPNS0_10ByteSourceE(ptr nocapture noundef readnone %env, ptr nocapture noundef nonnull readonly align 8 dereferenceable(80) %params, ptr noundef %out) local_unnamed_addr #3 align 2 {
entry:
  %ref.tmp = alloca %"class.node::crypto::ByteSource", align 8
  %length = getelementptr inbounds i8, ptr %params, i64 68
  %0 = load i32, ptr %length, align 4
  %conv = sext i32 %0 to i64
  %call1.i.i = tail call ptr @CRYPTO_malloc(i64 noundef %conv, ptr noundef nonnull @.str.16, i32 noundef 205) #19
  %cmp.i.i = icmp eq ptr %call1.i.i, null
  %cmp2.i.i = icmp ne i32 %0, 0
  %.not.i.i = and i1 %cmp2.i.i, %cmp.i.i
  br i1 %.not.i.i, label %do.body5.i.i, label %_ZN4node6crypto10ByteSource7BuilderC2Em.exit

do.body5.i.i:                                     ; preds = %entry
  tail call void @_ZN4node6AssertERKNS_13AssertionInfoE(ptr noundef nonnull align 8 dereferenceable(24) @_ZZN4node6crypto13MallocOpenSSLIcEEPT_mE4args) #19
  tail call void @abort() #21
  unreachable

_ZN4node6crypto10ByteSource7BuilderC2Em.exit:     ; preds = %entry
  %pass = getelementptr inbounds i8, ptr %params, i64 16
  %1 = load ptr, ptr %pass, align 8
  %size_.i8 = getelementptr inbounds i8, ptr %params, i64 32
  %2 = load i64, ptr %size_.i8, align 8
  %conv3 = trunc i64 %2 to i32
  %salt = getelementptr inbounds i8, ptr %params, i64 40
  %3 = load ptr, ptr %salt, align 8
  %size_.i9 = getelementptr inbounds i8, ptr %params, i64 56
  %4 = load i64, ptr %size_.i9, align 8
  %conv7 = trunc i64 %4 to i32
  %iterations = getelementptr inbounds i8, ptr %params, i64 64
  %5 = load i32, ptr %iterations, align 8
  %digest = getelementptr inbounds i8, ptr %params, i64 72
  %6 = load ptr, ptr %digest, align 8
  %7 = load i32, ptr %length, align 4
  %call10 = tail call i32 @PKCS5_PBKDF2_HMAC(ptr noundef %1, i32 noundef %conv3, ptr noundef %3, i32 noundef %conv7, i32 noundef %5, ptr noundef %6, i32 noundef %7, ptr noundef %call1.i.i) #19
  %cmp = icmp sgt i32 %call10, 0
  br i1 %cmp, label %_ZNO4node6crypto10ByteSource7Builder7releaseESt8optionalImE.exit, label %cleanup

_ZNO4node6crypto10ByteSource7Builder7releaseESt8optionalImE.exit: ; preds = %_ZN4node6crypto10ByteSource7BuilderC2Em.exit
  call void @_ZN4node6crypto10ByteSource9AllocatedEPvm(ptr nonnull sret(%"class.node::crypto::ByteSource") align 8 %ref.tmp, ptr noundef %call1.i.i, i64 noundef %conv) #19
  %call12 = call noundef nonnull align 8 dereferenceable(24) ptr @_ZN4node6crypto10ByteSourceaSEOS1_(ptr noundef nonnull align 8 dereferenceable(24) %out, ptr noundef nonnull align 8 dereferenceable(24) %ref.tmp) #19
  call void @_ZN4node6crypto10ByteSourceD1Ev(ptr noundef nonnull align 8 dereferenceable(24) %ref.tmp) #19
  br label %cleanup

cleanup:                                          ; preds = %_ZN4node6crypto10ByteSource7BuilderC2Em.exit, %_ZNO4node6crypto10ByteSource7Builder7releaseESt8optionalImE.exit
  %buf.sroa.7.1 = phi i64 [ 0, %_ZNO4node6crypto10ByteSource7Builder7releaseESt8optionalImE.exit ], [ %conv, %_ZN4node6crypto10ByteSource7BuilderC2Em.exit ]
  %buf.sroa.0.2 = phi ptr [ null, %_ZNO4node6crypto10ByteSource7Builder7releaseESt8optionalImE.exit ], [ %call1.i.i, %_ZN4node6crypto10ByteSource7BuilderC2Em.exit ]
  call void @CRYPTO_clear_free(ptr noundef %buf.sroa.0.2, i64 noundef %buf.sroa.7.1, ptr noundef nonnull @.str.16, i32 noundef 225) #19
  ret i1 %cmp
}